target datalayout = "e-m:e-p270:32:32-p271:32:32-p272:64:64-i64:64-i128:128-f80:128-n8:16:32:64-S128"
target triple = "x86_64-pc-linux-gnu"

%struct._zend_array = type { %struct._zend_refcounted_h, %union.anon.4, i32, %union.anon.6, i32, i32, i32, i32, i64, ptr }
%struct._zend_refcounted_h = type { i32, %union.anon.3 }
%union.anon.3 = type { i32 }
%union.anon.4 = type { i32 }
%union.anon.6 = type { ptr }
%struct._zval_struct = type { %union._zend_value, %union.anon, %union.anon.2 }
%union._zend_value = type { i64 }
%union.anon = type { i32 }
%union.anon.2 = type { i32 }
%struct._phar_entry_info = type { i32, i32, i32, i32, i32, i32, %struct._phar_metadata_tracker, i32, ptr, i32, i64, i64, i64, ptr, ptr, i32, ptr, ptr, ptr, i8, i32, i16, i16 }
%struct._phar_metadata_tracker = type { %struct._zval_struct, ptr }
%struct._phar_archive_data = type { ptr, i32, ptr, i32, ptr, i32, [12 x i8], i64, i64, %struct._zend_array, %struct._zend_array, %struct._zend_array, i32, i32, i32, ptr, ptr, i32, i32, i32, ptr, %struct._phar_metadata_tracker, i32, i16 }

@.str.45 = private unnamed_addr constant [6 x i8] c"%s/%s\00", align 1

; Function Attrs: nounwind uwtable
define internal ptr @phar_get_link_location(ptr noundef %0) #0 {
  %2 = alloca ptr, align 8
  %3 = alloca ptr, align 8
  %4 = alloca ptr, align 8
  %5 = alloca ptr, align 8
  store ptr %0, ptr %3, align 8
  store ptr null, ptr %5, align 8
  %6 = load ptr, ptr %3, align 8
  %7 = getelementptr inbounds %struct._phar_entry_info, ptr %6, i32 0, i32 18
  %8 = load ptr, ptr %7, align 8
  %9 = icmp ne ptr %8, null
  br i1 %9, label %11, label %10

10:                                               ; preds = %1
  store ptr null, ptr %2, align 8
  br label %46

11:                                               ; preds = %1
  %12 = load ptr, ptr %3, align 8
  %13 = getelementptr inbounds %struct._phar_entry_info, ptr %12, i32 0, i32 18
  %14 = load ptr, ptr %13, align 8
  %15 = getelementptr inbounds i8, ptr %14, i64 0
  %16 = load i8, ptr %15, align 1
  %17 = sext i8 %16 to i32
  %18 = icmp eq i32 %17, 47
  br i1 %18, label %19, label %25

19:                                               ; preds = %11
  %20 = load ptr, ptr %3, align 8
  %21 = getelementptr inbounds %struct._phar_entry_info, ptr %20, i32 0, i32 18
  %22 = load ptr, ptr %21, align 8
  %23 = getelementptr inbounds i8, ptr %22, i64 1
  %24 = call noalias ptr @_estrdup(ptr noundef %23)
  store ptr %24, ptr %2, align 8
  br label %46

25:                                               ; preds = %11
  %26 = load ptr, ptr %3, align 8
  %27 = getelementptr inbounds %struct._phar_entry_info, ptr %26, i32 0, i32 8
  %28 = load ptr, ptr %27, align 8
  %29 = call ptr @strrchr(ptr noundef %28, i32 noundef 47) #10
  store ptr %29, ptr %4, align 8
  %30 = load ptr, ptr %4, align 8
  %31 = icmp ne ptr %30, null
  br i1 %31, label %32, label %42

32:                                               ; preds = %25
  %33 = load ptr, ptr %4, align 8
  store i8 0, ptr %33, align 1
  %34 = load ptr, ptr %3, align 8
  %35 = getelementptr inbounds %struct._phar_entry_info, ptr %34, i32 0, i32 8
  %36 = load ptr, ptr %35, align 8
  %37 = load ptr, ptr %3, align 8
  %38 = getelementptr inbounds %struct._phar_entry_info, ptr %37, i32 0, i32 18
  %39 = load ptr, ptr %38, align 8
  %40 = call i64 (ptr, i64, ptr, ...) @zend_spprintf(ptr noundef %5, i64 noundef 0, ptr noundef @.str.45, ptr noundef %36, ptr noundef %39)
  %41 = load ptr, ptr %5, align 8
  store ptr %41, ptr %2, align 8
  br label %46

42:                                               ; preds = %25
  %43 = load ptr, ptr %3, align 8
  %44 = getelementptr inbounds %struct._phar_entry_info, ptr %43, i32 0, i32 18
  %45 = load ptr, ptr %44, align 8
  store ptr %45, ptr %2, align 8
  br label %46

46:                                               ; preds = %42, %32, %19, %10
  %47 = load ptr, ptr %2, align 8
  ret ptr %47
}

; Function Attrs: nounwind uwtable
define hidden ptr @phar_get_link_source(ptr noundef %0) #0 {
  %2 = alloca ptr, align 8
  %3 = alloca ptr, align 8
  %4 = alloca ptr, align 8
  %5 = alloca i64, align 8
  %6 = alloca ptr, align 8
  %7 = alloca ptr, align 8
  %8 = alloca ptr, align 8
  %9 = alloca ptr, align 8
  %10 = alloca i64, align 8
  %11 = alloca ptr, align 8
  %12 = alloca ptr, align 8
  %13 = alloca ptr, align 8
  %14 = alloca ptr, align 8
  %15 = alloca ptr, align 8
  store ptr %0, ptr %13, align 8
  %16 = load ptr, ptr %13, align 8
  %17 = getelementptr inbounds %struct._phar_entry_info, ptr %16, i32 0, i32 18
  %18 = load ptr, ptr %17, align 8
  %19 = icmp ne ptr %18, null
  br i1 %19, label %22, label %20

20:                                               ; preds = %1
  %21 = load ptr, ptr %13, align 8
  store ptr %21, ptr %12, align 8
  br label %96

22:                                               ; preds = %1
  %23 = load ptr, ptr %13, align 8
  %24 = call ptr @phar_get_link_location(ptr noundef %23)
  store ptr %24, ptr %15, align 8
  %25 = load ptr, ptr %13, align 8
  %26 = getelementptr inbounds %struct._phar_entry_info, ptr %25, i32 0, i32 17
  %27 = load ptr, ptr %26, align 8
  %28 = getelementptr inbounds %struct._phar_archive_data, ptr %27, i32 0, i32 9
  %29 = load ptr, ptr %13, align 8
  %30 = getelementptr inbounds %struct._phar_entry_info, ptr %29, i32 0, i32 18
  %31 = load ptr, ptr %30, align 8
  %32 = load ptr, ptr %13, align 8
  %33 = getelementptr inbounds %struct._phar_entry_info, ptr %32, i32 0, i32 18
  %34 = load ptr, ptr %33, align 8
  %35 = call i64 @strlen(ptr noundef %34) #10
  store ptr %28, ptr %3, align 8
  store ptr %31, ptr %4, align 8
  store i64 %35, ptr %5, align 8
  %36 = load ptr, ptr %3, align 8
  %37 = load ptr, ptr %4, align 8
  %38 = load i64, ptr %5, align 8
  %39 = call ptr @zend_hash_str_find(ptr noundef %36, ptr noundef %37, i64 noundef %38) #11
  store ptr %39, ptr %6, align 8
  %40 = load ptr, ptr %6, align 8
  %41 = icmp ne ptr %40, null
  br i1 %41, label %42, label %48

42:                                               ; preds = %22
  %43 = load ptr, ptr %6, align 8
  %44 = load ptr, ptr %43, align 8
  %45 = icmp ne ptr %44, null
  call void @llvm.assume(i1 %45)
  %46 = load ptr, ptr %6, align 8
  %47 = load ptr, ptr %46, align 8
  store ptr %47, ptr %2, align 8
  br label %49

48:                                               ; preds = %22
  store ptr null, ptr %2, align 8
  br label %49

49:                                               ; preds = %48, %42
  %50 = load ptr, ptr %2, align 8
  store ptr %50, ptr %14, align 8
  %51 = icmp ne ptr null, %50
  br i1 %51, label %76, label %52

52:                                               ; preds = %49
  %53 = load ptr, ptr %13, align 8
  %54 = getelementptr inbounds %struct._phar_entry_info, ptr %53, i32 0, i32 17
  %55 = load ptr, ptr %54, align 8
  %56 = getelementptr inbounds %struct._phar_archive_data, ptr %55, i32 0, i32 9
  %57 = load ptr, ptr %15, align 8
  %58 = load ptr, ptr %15, align 8
  %59 = call i64 @strlen(ptr noundef %58) #10
  store ptr %56, ptr %8, align 8
  store ptr %57, ptr %9, align 8
  store i64 %59, ptr %10, align 8
  %60 = load ptr, ptr %8, align 8
  %61 = load ptr, ptr %9, align 8
  %62 = load i64, ptr %10, align 8
  %63 = call ptr @zend_hash_str_find(ptr noundef %60, ptr noundef %61, i64 noundef %62) #11
  store ptr %63, ptr %11, align 8
  %64 = load ptr, ptr %11, align 8
  %65 = icmp ne ptr %64, null
  br i1 %65, label %66, label %72

66:                                               ; preds = %52
  %67 = load ptr, ptr %11, align 8
  %68 = load ptr, ptr %67, align 8
  %69 = icmp ne ptr %68, null
  call void @llvm.assume(i1 %69)
  %70 = load ptr, ptr %11, align 8
  %71 = load ptr, ptr %70, align 8
  store ptr %71, ptr %7, align 8
  br label %73

72:                                               ; preds = %52
  store ptr null, ptr %7, align 8
  br label %73

73:                                               ; preds = %72, %66
  %74 = load ptr, ptr %7, align 8
  store ptr %74, ptr %14, align 8
  %75 = icmp ne ptr null, %74
  br i1 %75, label %76, label %87

76:                                               ; preds = %73, %49
  %77 = load ptr, ptr %15, align 8
  %78 = load ptr, ptr %13, align 8
  %79 = getelementptr inbounds %struct._phar_entry_info, ptr %78, i32 0, i32 18
  %80 = load ptr, ptr %79, align 8
  %81 = icmp ne ptr %77, %80
  br i1 %81, label %82, label %84

82:                                               ; preds = %76
  %83 = load ptr, ptr %15, align 8
  call void @_efree(ptr noundef %83)
  br label %84

84:                                               ; preds = %82, %76
  %85 = load ptr, ptr %14, align 8
  %86 = call ptr @phar_get_link_source(ptr noundef %85)
  store ptr %86, ptr %12, align 8
  br label %96

87:                                               ; preds = %73
  %88 = load ptr, ptr %15, align 8
  %89 = load ptr, ptr %13, align 8
  %90 = getelementptr inbounds %struct._phar_entry_info, ptr %89, i32 0, i32 18
  %91 = load ptr, ptr %90, align 8
  %92 = icmp ne ptr %88, %91
  br i1 %92, label %93, label %95

93:                                               ; preds = %87
  %94 = load ptr, ptr %15, align 8
  call void @_efree(ptr noundef %94)
  br label %95

95:                                               ; preds = %93, %87
  store ptr null, ptr %12, align 8
  br label %96

96:                                               ; preds = %95, %84, %20
  %97 = load ptr, ptr %12, align 8
  ret ptr %97
}