; Function Attrs: nounwind uwtable
define hidden ptr @phar_get_link_source(ptr noundef readonly %0) local_unnamed_addr #0 {
  %2 = alloca ptr, align 8
  %3 = getelementptr inbounds i8, ptr %0, i64 136
  %4 = load ptr, ptr %3, align 8
  %.not = icmp eq ptr %4, null
  br i1 %.not, label %39, label %5

5:                                                ; preds = %1
  call void @llvm.lifetime.start.p0(i64 8, ptr nonnull %2)
  store ptr null, ptr %2, align 8
  %6 = load i8, ptr %4, align 1
  %7 = icmp eq i8 %6, 47
  br i1 %7, label %8, label %11

8:                                                ; preds = %5
  %9 = getelementptr inbounds i8, ptr %4, i64 1
  %10 = tail call noalias ptr @_estrdup(ptr noundef nonnull %9) #15
  br label %phar_get_link_location.exit

11:                                               ; preds = %5
  %12 = getelementptr inbounds i8, ptr %0, i64 56
  %13 = load ptr, ptr %12, align 8
  %14 = tail call ptr @strrchr(ptr noundef nonnull dereferenceable(1) %13, i32 noundef 47) #16
  %.not12.i = icmp eq ptr %14, null
  br i1 %.not12.i, label %phar_get_link_location.exit, label %15

15:                                               ; preds = %11
  store i8 0, ptr %14, align 1
  %16 = load ptr, ptr %12, align 8
  %17 = load ptr, ptr %3, align 8
  %18 = call i64 (ptr, i64, ptr, ...) @zend_spprintf(ptr noundef nonnull %2, i64 noundef 0, ptr noundef nonnull @.str.45, ptr noundef %16, ptr noundef %17) #15
  %19 = load ptr, ptr %2, align 8
  br label %phar_get_link_location.exit

phar_get_link_location.exit:                      ; preds = %8, %11, %15
  %.0.i = phi ptr [ %10, %8 ], [ %19, %15 ], [ %4, %11 ]
  call void @llvm.lifetime.end.p0(i64 8, ptr nonnull %2)
  %20 = getelementptr inbounds i8, ptr %0, i64 128
  %21 = load ptr, ptr %20, align 8
  %22 = getelementptr inbounds i8, ptr %21, i64 72
  %23 = load ptr, ptr %3, align 8
  %24 = call i64 @strlen(ptr noundef nonnull dereferenceable(1) %23) #16
  %25 = call ptr @zend_hash_str_find(ptr noundef nonnull %22, ptr noundef %23, i64 noundef %24) #15
  %.not36 = icmp eq ptr %25, null
  br i1 %.not36, label %26, label %31

26:                                               ; preds = %phar_get_link_location.exit
  %27 = load ptr, ptr %20, align 8
  %28 = getelementptr inbounds i8, ptr %27, i64 72
  %29 = call i64 @strlen(ptr noundef nonnull dereferenceable(1) %.0.i) #16
  %30 = call ptr @zend_hash_str_find(ptr noundef nonnull %28, ptr noundef %.0.i, i64 noundef %29) #15
  %.not38 = icmp eq ptr %30, null
  br i1 %.not38, label %36, label %31

31:                                               ; preds = %26, %phar_get_link_location.exit
  %.030.in = phi ptr [ %25, %phar_get_link_location.exit ], [ %30, %26 ]
  %.030 = load ptr, ptr %.030.in, align 8, !nonnull !4, !noundef !4
  %32 = load ptr, ptr %3, align 8
  %.not41 = icmp eq ptr %.0.i, %32
  br i1 %.not41, label %34, label %33

33:                                               ; preds = %31
  call void @_efree(ptr noundef %.0.i) #15
  br label %34

34:                                               ; preds = %33, %31
  %35 = call ptr @phar_get_link_source(ptr noundef nonnull %.030)
  br label %39

36:                                               ; preds = %26
  %37 = load ptr, ptr %3, align 8
  %.not40 = icmp eq ptr %.0.i, %37
  br i1 %.not40, label %39, label %38

38:                                               ; preds = %36
  call void @_efree(ptr noundef %.0.i) #15
  br label %39

39:                                               ; preds = %36, %38, %1, %34
  %.032 = phi ptr [ %35, %34 ], [ %0, %1 ], [ null, %38 ], [ null, %36 ]
  ret ptr %.032
}